
online11.elf:     file format elf32-avr

Sections:
Idx Name          Size      VMA       LMA       File off  Algn
  0 .text         0000086e  00000000  00000000  00000094  2**1
                  CONTENTS, ALLOC, LOAD, READONLY, CODE
  1 .data         00000020  00800060  0000086e  00000902  2**0
                  CONTENTS, ALLOC, LOAD, DATA
  2 .bss          00000038  00800080  00800080  00000922  2**0
                  ALLOC
  3 .comment      00000030  00000000  00000000  00000922  2**0
                  CONTENTS, READONLY
  4 .note.gnu.avr.deviceinfo 0000003c  00000000  00000000  00000954  2**2
                  CONTENTS, READONLY
  5 .debug_info   000004e6  00000000  00000000  00000990  2**0
                  CONTENTS, READONLY, DEBUGGING
  6 .debug_abbrev 000004a3  00000000  00000000  00000e76  2**0
                  CONTENTS, READONLY, DEBUGGING
  7 .debug_line   00000116  00000000  00000000  00001319  2**0
                  CONTENTS, READONLY, DEBUGGING
  8 .debug_str    00000196  00000000  00000000  0000142f  2**0
                  CONTENTS, READONLY, DEBUGGING

Disassembly of section .text:

00000000 <__vectors>:
   0:	0c 94 2a 00 	jmp	0x54	; 0x54 <__ctors_end>
   4:	0c 94 8e 01 	jmp	0x31c	; 0x31c <__vector_1>
   8:	0c 94 b7 01 	jmp	0x36e	; 0x36e <__vector_2>
   c:	0c 94 e0 01 	jmp	0x3c0	; 0x3c0 <__vector_3>
  10:	0c 94 47 00 	jmp	0x8e	; 0x8e <__bad_interrupt>
  14:	0c 94 47 00 	jmp	0x8e	; 0x8e <__bad_interrupt>
  18:	0c 94 44 03 	jmp	0x688	; 0x688 <__vector_6>
  1c:	0c 94 f2 02 	jmp	0x5e4	; 0x5e4 <__vector_7>
  20:	0c 94 1b 03 	jmp	0x636	; 0x636 <__vector_8>
  24:	0c 94 c9 02 	jmp	0x592	; 0x592 <__vector_9>
  28:	0c 94 5b 02 	jmp	0x4b6	; 0x4b6 <__vector_10>
  2c:	0c 94 32 02 	jmp	0x464	; 0x464 <__vector_11>
  30:	0c 94 09 02 	jmp	0x412	; 0x412 <__vector_12>
  34:	0c 94 6d 03 	jmp	0x6da	; 0x6da <__vector_13>
  38:	0c 94 47 00 	jmp	0x8e	; 0x8e <__bad_interrupt>
  3c:	0c 94 96 03 	jmp	0x72c	; 0x72c <__vector_15>
  40:	0c 94 47 00 	jmp	0x8e	; 0x8e <__bad_interrupt>
  44:	0c 94 47 00 	jmp	0x8e	; 0x8e <__bad_interrupt>
  48:	0c 94 47 00 	jmp	0x8e	; 0x8e <__bad_interrupt>
  4c:	0c 94 47 00 	jmp	0x8e	; 0x8e <__bad_interrupt>
  50:	0c 94 47 00 	jmp	0x8e	; 0x8e <__bad_interrupt>

00000054 <__ctors_end>:
  54:	11 24       	eor	r1, r1
  56:	1f be       	out	0x3f, r1	; 63
  58:	cf e5       	ldi	r28, 0x5F	; 95
  5a:	d8 e0       	ldi	r29, 0x08	; 8
  5c:	de bf       	out	0x3e, r29	; 62
  5e:	cd bf       	out	0x3d, r28	; 61

00000060 <__do_copy_data>:
  60:	10 e0       	ldi	r17, 0x00	; 0
  62:	a0 e6       	ldi	r26, 0x60	; 96
  64:	b0 e0       	ldi	r27, 0x00	; 0
  66:	ee e6       	ldi	r30, 0x6E	; 110
  68:	f8 e0       	ldi	r31, 0x08	; 8
  6a:	02 c0       	rjmp	.+4      	; 0x70 <__do_copy_data+0x10>
  6c:	05 90       	lpm	r0, Z+
  6e:	0d 92       	st	X+, r0
  70:	a0 38       	cpi	r26, 0x80	; 128
  72:	b1 07       	cpc	r27, r17
  74:	d9 f7       	brne	.-10     	; 0x6c <__do_copy_data+0xc>

00000076 <__do_clear_bss>:
  76:	20 e0       	ldi	r18, 0x00	; 0
  78:	a0 e8       	ldi	r26, 0x80	; 128
  7a:	b0 e0       	ldi	r27, 0x00	; 0
  7c:	01 c0       	rjmp	.+2      	; 0x80 <.do_clear_bss_start>

0000007e <.do_clear_bss_loop>:
  7e:	1d 92       	st	X+, r1

00000080 <.do_clear_bss_start>:
  80:	a8 3b       	cpi	r26, 0xB8	; 184
  82:	b2 07       	cpc	r27, r18
  84:	e1 f7       	brne	.-8      	; 0x7e <.do_clear_bss_loop>
  86:	0e 94 55 00 	call	0xaa	; 0xaa <main>
  8a:	0c 94 35 04 	jmp	0x86a	; 0x86a <_exit>

0000008e <__bad_interrupt>:
  8e:	0c 94 00 00 	jmp	0	; 0x0 <__vectors>

00000092 <F1>:
  92:	80 e0       	ldi	r24, 0x00	; 0
  94:	0c 94 7b 00 	jmp	0xf6	; 0xf6 <DIO_TogglePIN>

00000098 <F2>:
  98:	81 e0       	ldi	r24, 0x01	; 1
  9a:	0c 94 7b 00 	jmp	0xf6	; 0xf6 <DIO_TogglePIN>

0000009e <F3>:
  9e:	82 e0       	ldi	r24, 0x02	; 2
  a0:	0c 94 7b 00 	jmp	0xf6	; 0xf6 <DIO_TogglePIN>

000000a4 <F4>:
  a4:	83 e0       	ldi	r24, 0x03	; 3
  a6:	0c 94 7b 00 	jmp	0xf6	; 0xf6 <DIO_TogglePIN>

000000aa <main>:
  aa:	0e 94 b0 00 	call	0x160	; 0x160 <DIO_Init>
  ae:	78 94       	sei
  b0:	22 e0       	ldi	r18, 0x02	; 2
  b2:	48 e8       	ldi	r20, 0x88	; 136
  b4:	53 e1       	ldi	r21, 0x13	; 19
  b6:	69 e4       	ldi	r22, 0x49	; 73
  b8:	70 e0       	ldi	r23, 0x00	; 0
  ba:	80 e0       	ldi	r24, 0x00	; 0
  bc:	0e 94 ee 03 	call	0x7dc	; 0x7dc <RTOS_u8CreateTask>
  c0:	20 e0       	ldi	r18, 0x00	; 0
  c2:	48 ee       	ldi	r20, 0xE8	; 232
  c4:	53 e0       	ldi	r21, 0x03	; 3
  c6:	6c e4       	ldi	r22, 0x4C	; 76
  c8:	70 e0       	ldi	r23, 0x00	; 0
  ca:	81 e0       	ldi	r24, 0x01	; 1
  cc:	0e 94 ee 03 	call	0x7dc	; 0x7dc <RTOS_u8CreateTask>
  d0:	21 e0       	ldi	r18, 0x01	; 1
  d2:	40 e1       	ldi	r20, 0x10	; 16
  d4:	57 e2       	ldi	r21, 0x27	; 39
  d6:	6f e4       	ldi	r22, 0x4F	; 79
  d8:	70 e0       	ldi	r23, 0x00	; 0
  da:	82 e0       	ldi	r24, 0x02	; 2
  dc:	0e 94 ee 03 	call	0x7dc	; 0x7dc <RTOS_u8CreateTask>
  e0:	22 e0       	ldi	r18, 0x02	; 2
  e2:	48 e8       	ldi	r20, 0x88	; 136
  e4:	53 e1       	ldi	r21, 0x13	; 19
  e6:	62 e5       	ldi	r22, 0x52	; 82
  e8:	70 e0       	ldi	r23, 0x00	; 0
  ea:	83 e0       	ldi	r24, 0x03	; 3
  ec:	0e 94 ee 03 	call	0x7dc	; 0x7dc <RTOS_u8CreateTask>
  f0:	0e 94 e6 03 	call	0x7cc	; 0x7cc <RTOS_voidStart>
  f4:	ff cf       	rjmp	.-2      	; 0xf4 <main+0x4a>

000000f6 <DIO_TogglePIN>:
  f6:	28 2f       	mov	r18, r24
  f8:	27 70       	andi	r18, 0x07	; 7
  fa:	86 95       	lsr	r24
  fc:	86 95       	lsr	r24
  fe:	86 95       	lsr	r24
 100:	81 30       	cpi	r24, 0x01	; 1
 102:	81 f0       	breq	.+32     	; 0x124 <DIO_TogglePIN+0x2e>
 104:	28 f0       	brcs	.+10     	; 0x110 <DIO_TogglePIN+0x1a>
 106:	82 30       	cpi	r24, 0x02	; 2
 108:	b9 f0       	breq	.+46     	; 0x138 <DIO_TogglePIN+0x42>
 10a:	83 30       	cpi	r24, 0x03	; 3
 10c:	f9 f0       	breq	.+62     	; 0x14c <DIO_TogglePIN+0x56>
 10e:	08 95       	ret
 110:	3b b3       	in	r19, 0x1b	; 27
 112:	81 e0       	ldi	r24, 0x01	; 1
 114:	90 e0       	ldi	r25, 0x00	; 0
 116:	01 c0       	rjmp	.+2      	; 0x11a <DIO_TogglePIN+0x24>
 118:	88 0f       	add	r24, r24
 11a:	2a 95       	dec	r18
 11c:	ea f7       	brpl	.-6      	; 0x118 <DIO_TogglePIN+0x22>
 11e:	83 27       	eor	r24, r19
 120:	8b bb       	out	0x1b, r24	; 27
 122:	08 95       	ret
 124:	38 b3       	in	r19, 0x18	; 24
 126:	81 e0       	ldi	r24, 0x01	; 1
 128:	90 e0       	ldi	r25, 0x00	; 0
 12a:	01 c0       	rjmp	.+2      	; 0x12e <DIO_TogglePIN+0x38>
 12c:	88 0f       	add	r24, r24
 12e:	2a 95       	dec	r18
 130:	ea f7       	brpl	.-6      	; 0x12c <DIO_TogglePIN+0x36>
 132:	83 27       	eor	r24, r19
 134:	88 bb       	out	0x18, r24	; 24
 136:	08 95       	ret
 138:	35 b3       	in	r19, 0x15	; 21
 13a:	81 e0       	ldi	r24, 0x01	; 1
 13c:	90 e0       	ldi	r25, 0x00	; 0
 13e:	01 c0       	rjmp	.+2      	; 0x142 <DIO_TogglePIN+0x4c>
 140:	88 0f       	add	r24, r24
 142:	2a 95       	dec	r18
 144:	ea f7       	brpl	.-6      	; 0x140 <DIO_TogglePIN+0x4a>
 146:	83 27       	eor	r24, r19
 148:	85 bb       	out	0x15, r24	; 21
 14a:	08 95       	ret
 14c:	32 b3       	in	r19, 0x12	; 18
 14e:	81 e0       	ldi	r24, 0x01	; 1
 150:	90 e0       	ldi	r25, 0x00	; 0
 152:	01 c0       	rjmp	.+2      	; 0x156 <DIO_TogglePIN+0x60>
 154:	88 0f       	add	r24, r24
 156:	2a 95       	dec	r18
 158:	ea f7       	brpl	.-6      	; 0x154 <DIO_TogglePIN+0x5e>
 15a:	83 27       	eor	r24, r19
 15c:	82 bb       	out	0x12, r24	; 18
 15e:	08 95       	ret

00000160 <DIO_Init>:
 160:	e0 e6       	ldi	r30, 0x60	; 96
 162:	f0 e0       	ldi	r31, 0x00	; 0
 164:	40 e0       	ldi	r20, 0x00	; 0
 166:	81 e0       	ldi	r24, 0x01	; 1
 168:	90 e0       	ldi	r25, 0x00	; 0
 16a:	51 91       	ld	r21, Z+
 16c:	34 2f       	mov	r19, r20
 16e:	36 95       	lsr	r19
 170:	36 95       	lsr	r19
 172:	36 95       	lsr	r19
 174:	24 2f       	mov	r18, r20
 176:	27 70       	andi	r18, 0x07	; 7
 178:	51 30       	cpi	r21, 0x01	; 1
 17a:	09 f4       	brne	.+2      	; 0x17e <DIO_Init+0x1e>
 17c:	43 c0       	rjmp	.+134    	; 0x204 <DIO_Init+0xa4>
 17e:	20 f0       	brcs	.+8      	; 0x188 <DIO_Init+0x28>
 180:	52 30       	cpi	r21, 0x02	; 2
 182:	09 f4       	brne	.+2      	; 0x186 <DIO_Init+0x26>
 184:	82 c0       	rjmp	.+260    	; 0x28a <DIO_Init+0x12a>
 186:	c5 c0       	rjmp	.+394    	; 0x312 <DIO_Init+0x1b2>
 188:	32 30       	cpi	r19, 0x02	; 2
 18a:	01 f1       	breq	.+64     	; 0x1cc <DIO_Init+0x6c>
 18c:	33 30       	cpi	r19, 0x03	; 3
 18e:	61 f1       	breq	.+88     	; 0x1e8 <DIO_Init+0x88>
 190:	31 30       	cpi	r19, 0x01	; 1
 192:	71 f0       	breq	.+28     	; 0x1b0 <DIO_Init+0x50>
 194:	5a b3       	in	r21, 0x1a	; 26
 196:	bc 01       	movw	r22, r24
 198:	02 c0       	rjmp	.+4      	; 0x19e <DIO_Init+0x3e>
 19a:	66 0f       	add	r22, r22
 19c:	77 1f       	adc	r23, r23
 19e:	2a 95       	dec	r18
 1a0:	e2 f7       	brpl	.-8      	; 0x19a <DIO_Init+0x3a>
 1a2:	9b 01       	movw	r18, r22
 1a4:	35 2f       	mov	r19, r21
 1a6:	32 2b       	or	r19, r18
 1a8:	3a bb       	out	0x1a, r19	; 26
 1aa:	3b b3       	in	r19, 0x1b	; 27
 1ac:	20 95       	com	r18
 1ae:	3d c0       	rjmp	.+122    	; 0x22a <DIO_Init+0xca>
 1b0:	57 b3       	in	r21, 0x17	; 23
 1b2:	bc 01       	movw	r22, r24
 1b4:	02 c0       	rjmp	.+4      	; 0x1ba <DIO_Init+0x5a>
 1b6:	66 0f       	add	r22, r22
 1b8:	77 1f       	adc	r23, r23
 1ba:	2a 95       	dec	r18
 1bc:	e2 f7       	brpl	.-8      	; 0x1b6 <DIO_Init+0x56>
 1be:	9b 01       	movw	r18, r22
 1c0:	35 2f       	mov	r19, r21
 1c2:	32 2b       	or	r19, r18
 1c4:	37 bb       	out	0x17, r19	; 23
 1c6:	38 b3       	in	r19, 0x18	; 24
 1c8:	20 95       	com	r18
 1ca:	3e c0       	rjmp	.+124    	; 0x248 <DIO_Init+0xe8>
 1cc:	54 b3       	in	r21, 0x14	; 20
 1ce:	bc 01       	movw	r22, r24
 1d0:	02 c0       	rjmp	.+4      	; 0x1d6 <DIO_Init+0x76>
 1d2:	66 0f       	add	r22, r22
 1d4:	77 1f       	adc	r23, r23
 1d6:	2a 95       	dec	r18
 1d8:	e2 f7       	brpl	.-8      	; 0x1d2 <DIO_Init+0x72>
 1da:	9b 01       	movw	r18, r22
 1dc:	35 2f       	mov	r19, r21
 1de:	32 2b       	or	r19, r18
 1e0:	34 bb       	out	0x14, r19	; 20
 1e2:	35 b3       	in	r19, 0x15	; 21
 1e4:	20 95       	com	r18
 1e6:	3f c0       	rjmp	.+126    	; 0x266 <DIO_Init+0x106>
 1e8:	51 b3       	in	r21, 0x11	; 17
 1ea:	bc 01       	movw	r22, r24
 1ec:	02 c0       	rjmp	.+4      	; 0x1f2 <DIO_Init+0x92>
 1ee:	66 0f       	add	r22, r22
 1f0:	77 1f       	adc	r23, r23
 1f2:	2a 95       	dec	r18
 1f4:	e2 f7       	brpl	.-8      	; 0x1ee <DIO_Init+0x8e>
 1f6:	9b 01       	movw	r18, r22
 1f8:	35 2f       	mov	r19, r21
 1fa:	32 2b       	or	r19, r18
 1fc:	31 bb       	out	0x11, r19	; 17
 1fe:	32 b3       	in	r19, 0x12	; 18
 200:	20 95       	com	r18
 202:	41 c0       	rjmp	.+130    	; 0x286 <DIO_Init+0x126>
 204:	32 30       	cpi	r19, 0x02	; 2
 206:	11 f1       	breq	.+68     	; 0x24c <DIO_Init+0xec>
 208:	33 30       	cpi	r19, 0x03	; 3
 20a:	81 f1       	breq	.+96     	; 0x26c <DIO_Init+0x10c>
 20c:	31 30       	cpi	r19, 0x01	; 1
 20e:	79 f0       	breq	.+30     	; 0x22e <DIO_Init+0xce>
 210:	5a b3       	in	r21, 0x1a	; 26
 212:	bc 01       	movw	r22, r24
 214:	02 c0       	rjmp	.+4      	; 0x21a <DIO_Init+0xba>
 216:	66 0f       	add	r22, r22
 218:	77 1f       	adc	r23, r23
 21a:	2a 95       	dec	r18
 21c:	e2 f7       	brpl	.-8      	; 0x216 <DIO_Init+0xb6>
 21e:	9b 01       	movw	r18, r22
 220:	20 95       	com	r18
 222:	35 2f       	mov	r19, r21
 224:	32 23       	and	r19, r18
 226:	3a bb       	out	0x1a, r19	; 26
 228:	3b b3       	in	r19, 0x1b	; 27
 22a:	23 23       	and	r18, r19
 22c:	42 c0       	rjmp	.+132    	; 0x2b2 <DIO_Init+0x152>
 22e:	57 b3       	in	r21, 0x17	; 23
 230:	bc 01       	movw	r22, r24
 232:	02 c0       	rjmp	.+4      	; 0x238 <DIO_Init+0xd8>
 234:	66 0f       	add	r22, r22
 236:	77 1f       	adc	r23, r23
 238:	2a 95       	dec	r18
 23a:	e2 f7       	brpl	.-8      	; 0x234 <DIO_Init+0xd4>
 23c:	9b 01       	movw	r18, r22
 23e:	20 95       	com	r18
 240:	35 2f       	mov	r19, r21
 242:	32 23       	and	r19, r18
 244:	37 bb       	out	0x17, r19	; 23
 246:	38 b3       	in	r19, 0x18	; 24
 248:	23 23       	and	r18, r19
 24a:	43 c0       	rjmp	.+134    	; 0x2d2 <DIO_Init+0x172>
 24c:	54 b3       	in	r21, 0x14	; 20
 24e:	bc 01       	movw	r22, r24
 250:	02 c0       	rjmp	.+4      	; 0x256 <DIO_Init+0xf6>
 252:	66 0f       	add	r22, r22
 254:	77 1f       	adc	r23, r23
 256:	2a 95       	dec	r18
 258:	e2 f7       	brpl	.-8      	; 0x252 <DIO_Init+0xf2>
 25a:	9b 01       	movw	r18, r22
 25c:	20 95       	com	r18
 25e:	35 2f       	mov	r19, r21
 260:	32 23       	and	r19, r18
 262:	34 bb       	out	0x14, r19	; 20
 264:	35 b3       	in	r19, 0x15	; 21
 266:	23 23       	and	r18, r19
 268:	25 bb       	out	0x15, r18	; 21
 26a:	53 c0       	rjmp	.+166    	; 0x312 <DIO_Init+0x1b2>
 26c:	51 b3       	in	r21, 0x11	; 17
 26e:	bc 01       	movw	r22, r24
 270:	02 c0       	rjmp	.+4      	; 0x276 <DIO_Init+0x116>
 272:	66 0f       	add	r22, r22
 274:	77 1f       	adc	r23, r23
 276:	2a 95       	dec	r18
 278:	e2 f7       	brpl	.-8      	; 0x272 <DIO_Init+0x112>
 27a:	9b 01       	movw	r18, r22
 27c:	20 95       	com	r18
 27e:	35 2f       	mov	r19, r21
 280:	32 23       	and	r19, r18
 282:	31 bb       	out	0x11, r19	; 17
 284:	32 b3       	in	r19, 0x12	; 18
 286:	23 23       	and	r18, r19
 288:	43 c0       	rjmp	.+134    	; 0x310 <DIO_Init+0x1b0>
 28a:	32 30       	cpi	r19, 0x02	; 2
 28c:	21 f1       	breq	.+72     	; 0x2d6 <DIO_Init+0x176>
 28e:	33 30       	cpi	r19, 0x03	; 3
 290:	89 f1       	breq	.+98     	; 0x2f4 <DIO_Init+0x194>
 292:	31 30       	cpi	r19, 0x01	; 1
 294:	81 f0       	breq	.+32     	; 0x2b6 <DIO_Init+0x156>
 296:	5a b3       	in	r21, 0x1a	; 26
 298:	bc 01       	movw	r22, r24
 29a:	02 c0       	rjmp	.+4      	; 0x2a0 <DIO_Init+0x140>
 29c:	66 0f       	add	r22, r22
 29e:	77 1f       	adc	r23, r23
 2a0:	2a 95       	dec	r18
 2a2:	e2 f7       	brpl	.-8      	; 0x29c <DIO_Init+0x13c>
 2a4:	9b 01       	movw	r18, r22
 2a6:	36 2f       	mov	r19, r22
 2a8:	30 95       	com	r19
 2aa:	35 23       	and	r19, r21
 2ac:	3a bb       	out	0x1a, r19	; 26
 2ae:	3b b3       	in	r19, 0x1b	; 27
 2b0:	23 2b       	or	r18, r19
 2b2:	2b bb       	out	0x1b, r18	; 27
 2b4:	2e c0       	rjmp	.+92     	; 0x312 <DIO_Init+0x1b2>
 2b6:	57 b3       	in	r21, 0x17	; 23
 2b8:	bc 01       	movw	r22, r24
 2ba:	02 c0       	rjmp	.+4      	; 0x2c0 <DIO_Init+0x160>
 2bc:	66 0f       	add	r22, r22
 2be:	77 1f       	adc	r23, r23
 2c0:	2a 95       	dec	r18
 2c2:	e2 f7       	brpl	.-8      	; 0x2bc <DIO_Init+0x15c>
 2c4:	9b 01       	movw	r18, r22
 2c6:	36 2f       	mov	r19, r22
 2c8:	30 95       	com	r19
 2ca:	35 23       	and	r19, r21
 2cc:	37 bb       	out	0x17, r19	; 23
 2ce:	38 b3       	in	r19, 0x18	; 24
 2d0:	23 2b       	or	r18, r19
 2d2:	28 bb       	out	0x18, r18	; 24
 2d4:	1e c0       	rjmp	.+60     	; 0x312 <DIO_Init+0x1b2>
 2d6:	54 b3       	in	r21, 0x14	; 20
 2d8:	bc 01       	movw	r22, r24
 2da:	02 c0       	rjmp	.+4      	; 0x2e0 <DIO_Init+0x180>
 2dc:	66 0f       	add	r22, r22
 2de:	77 1f       	adc	r23, r23
 2e0:	2a 95       	dec	r18
 2e2:	e2 f7       	brpl	.-8      	; 0x2dc <DIO_Init+0x17c>
 2e4:	9b 01       	movw	r18, r22
 2e6:	36 2f       	mov	r19, r22
 2e8:	30 95       	com	r19
 2ea:	35 23       	and	r19, r21
 2ec:	34 bb       	out	0x14, r19	; 20
 2ee:	35 b3       	in	r19, 0x15	; 21
 2f0:	23 2b       	or	r18, r19
 2f2:	ba cf       	rjmp	.-140    	; 0x268 <DIO_Init+0x108>
 2f4:	51 b3       	in	r21, 0x11	; 17
 2f6:	bc 01       	movw	r22, r24
 2f8:	02 c0       	rjmp	.+4      	; 0x2fe <DIO_Init+0x19e>
 2fa:	66 0f       	add	r22, r22
 2fc:	77 1f       	adc	r23, r23
 2fe:	2a 95       	dec	r18
 300:	e2 f7       	brpl	.-8      	; 0x2fa <DIO_Init+0x19a>
 302:	9b 01       	movw	r18, r22
 304:	36 2f       	mov	r19, r22
 306:	30 95       	com	r19
 308:	35 23       	and	r19, r21
 30a:	31 bb       	out	0x11, r19	; 17
 30c:	32 b3       	in	r19, 0x12	; 18
 30e:	23 2b       	or	r18, r19
 310:	22 bb       	out	0x12, r18	; 18
 312:	4f 5f       	subi	r20, 0xFF	; 255
 314:	40 32       	cpi	r20, 0x20	; 32
 316:	09 f0       	breq	.+2      	; 0x31a <DIO_Init+0x1ba>
 318:	28 cf       	rjmp	.-432    	; 0x16a <DIO_Init+0xa>
 31a:	08 95       	ret

0000031c <__vector_1>:
 31c:	1f 92       	push	r1
 31e:	0f 92       	push	r0
 320:	0f b6       	in	r0, 0x3f	; 63
 322:	0f 92       	push	r0
 324:	11 24       	eor	r1, r1
 326:	2f 93       	push	r18
 328:	3f 93       	push	r19
 32a:	4f 93       	push	r20
 32c:	5f 93       	push	r21
 32e:	6f 93       	push	r22
 330:	7f 93       	push	r23
 332:	8f 93       	push	r24
 334:	9f 93       	push	r25
 336:	af 93       	push	r26
 338:	bf 93       	push	r27
 33a:	ef 93       	push	r30
 33c:	ff 93       	push	r31
 33e:	e0 91 84 00 	lds	r30, 0x0084	; 0x800084 <INT0_Fptr>
 342:	f0 91 85 00 	lds	r31, 0x0085	; 0x800085 <INT0_Fptr+0x1>
 346:	30 97       	sbiw	r30, 0x00	; 0
 348:	09 f0       	breq	.+2      	; 0x34c <__vector_1+0x30>
 34a:	09 95       	icall
 34c:	ff 91       	pop	r31
 34e:	ef 91       	pop	r30
 350:	bf 91       	pop	r27
 352:	af 91       	pop	r26
 354:	9f 91       	pop	r25
 356:	8f 91       	pop	r24
 358:	7f 91       	pop	r23
 35a:	6f 91       	pop	r22
 35c:	5f 91       	pop	r21
 35e:	4f 91       	pop	r20
 360:	3f 91       	pop	r19
 362:	2f 91       	pop	r18
 364:	0f 90       	pop	r0
 366:	0f be       	out	0x3f, r0	; 63
 368:	0f 90       	pop	r0
 36a:	1f 90       	pop	r1
 36c:	18 95       	reti

0000036e <__vector_2>:
 36e:	1f 92       	push	r1
 370:	0f 92       	push	r0
 372:	0f b6       	in	r0, 0x3f	; 63
 374:	0f 92       	push	r0
 376:	11 24       	eor	r1, r1
 378:	2f 93       	push	r18
 37a:	3f 93       	push	r19
 37c:	4f 93       	push	r20
 37e:	5f 93       	push	r21
 380:	6f 93       	push	r22
 382:	7f 93       	push	r23
 384:	8f 93       	push	r24
 386:	9f 93       	push	r25
 388:	af 93       	push	r26
 38a:	bf 93       	push	r27
 38c:	ef 93       	push	r30
 38e:	ff 93       	push	r31
 390:	e0 91 82 00 	lds	r30, 0x0082	; 0x800082 <INT1_Fptr>
 394:	f0 91 83 00 	lds	r31, 0x0083	; 0x800083 <INT1_Fptr+0x1>
 398:	30 97       	sbiw	r30, 0x00	; 0
 39a:	09 f0       	breq	.+2      	; 0x39e <__vector_2+0x30>
 39c:	09 95       	icall
 39e:	ff 91       	pop	r31
 3a0:	ef 91       	pop	r30
 3a2:	bf 91       	pop	r27
 3a4:	af 91       	pop	r26
 3a6:	9f 91       	pop	r25
 3a8:	8f 91       	pop	r24
 3aa:	7f 91       	pop	r23
 3ac:	6f 91       	pop	r22
 3ae:	5f 91       	pop	r21
 3b0:	4f 91       	pop	r20
 3b2:	3f 91       	pop	r19
 3b4:	2f 91       	pop	r18
 3b6:	0f 90       	pop	r0
 3b8:	0f be       	out	0x3f, r0	; 63
 3ba:	0f 90       	pop	r0
 3bc:	1f 90       	pop	r1
 3be:	18 95       	reti

000003c0 <__vector_3>:
 3c0:	1f 92       	push	r1
 3c2:	0f 92       	push	r0
 3c4:	0f b6       	in	r0, 0x3f	; 63
 3c6:	0f 92       	push	r0
 3c8:	11 24       	eor	r1, r1
 3ca:	2f 93       	push	r18
 3cc:	3f 93       	push	r19
 3ce:	4f 93       	push	r20
 3d0:	5f 93       	push	r21
 3d2:	6f 93       	push	r22
 3d4:	7f 93       	push	r23
 3d6:	8f 93       	push	r24
 3d8:	9f 93       	push	r25
 3da:	af 93       	push	r26
 3dc:	bf 93       	push	r27
 3de:	ef 93       	push	r30
 3e0:	ff 93       	push	r31
 3e2:	e0 91 80 00 	lds	r30, 0x0080	; 0x800080 <__data_end>
 3e6:	f0 91 81 00 	lds	r31, 0x0081	; 0x800081 <__data_end+0x1>
 3ea:	30 97       	sbiw	r30, 0x00	; 0
 3ec:	09 f0       	breq	.+2      	; 0x3f0 <__vector_3+0x30>
 3ee:	09 95       	icall
 3f0:	ff 91       	pop	r31
 3f2:	ef 91       	pop	r30
 3f4:	bf 91       	pop	r27
 3f6:	af 91       	pop	r26
 3f8:	9f 91       	pop	r25
 3fa:	8f 91       	pop	r24
 3fc:	7f 91       	pop	r23
 3fe:	6f 91       	pop	r22
 400:	5f 91       	pop	r21
 402:	4f 91       	pop	r20
 404:	3f 91       	pop	r19
 406:	2f 91       	pop	r18
 408:	0f 90       	pop	r0
 40a:	0f be       	out	0x3f, r0	; 63
 40c:	0f 90       	pop	r0
 40e:	1f 90       	pop	r1
 410:	18 95       	reti

00000412 <__vector_12>:
 412:	1f 92       	push	r1
 414:	0f 92       	push	r0
 416:	0f b6       	in	r0, 0x3f	; 63
 418:	0f 92       	push	r0
 41a:	11 24       	eor	r1, r1
 41c:	2f 93       	push	r18
 41e:	3f 93       	push	r19
 420:	4f 93       	push	r20
 422:	5f 93       	push	r21
 424:	6f 93       	push	r22
 426:	7f 93       	push	r23
 428:	8f 93       	push	r24
 42a:	9f 93       	push	r25
 42c:	af 93       	push	r26
 42e:	bf 93       	push	r27
 430:	ef 93       	push	r30
 432:	ff 93       	push	r31
 434:	e0 91 86 00 	lds	r30, 0x0086	; 0x800086 <SPI_Fptr>
 438:	f0 91 87 00 	lds	r31, 0x0087	; 0x800087 <SPI_Fptr+0x1>
 43c:	30 97       	sbiw	r30, 0x00	; 0
 43e:	09 f0       	breq	.+2      	; 0x442 <__vector_12+0x30>
 440:	09 95       	icall
 442:	ff 91       	pop	r31
 444:	ef 91       	pop	r30
 446:	bf 91       	pop	r27
 448:	af 91       	pop	r26
 44a:	9f 91       	pop	r25
 44c:	8f 91       	pop	r24
 44e:	7f 91       	pop	r23
 450:	6f 91       	pop	r22
 452:	5f 91       	pop	r21
 454:	4f 91       	pop	r20
 456:	3f 91       	pop	r19
 458:	2f 91       	pop	r18
 45a:	0f 90       	pop	r0
 45c:	0f be       	out	0x3f, r0	; 63
 45e:	0f 90       	pop	r0
 460:	1f 90       	pop	r1
 462:	18 95       	reti

00000464 <__vector_11>:
 464:	1f 92       	push	r1
 466:	0f 92       	push	r0
 468:	0f b6       	in	r0, 0x3f	; 63
 46a:	0f 92       	push	r0
 46c:	11 24       	eor	r1, r1
 46e:	2f 93       	push	r18
 470:	3f 93       	push	r19
 472:	4f 93       	push	r20
 474:	5f 93       	push	r21
 476:	6f 93       	push	r22
 478:	7f 93       	push	r23
 47a:	8f 93       	push	r24
 47c:	9f 93       	push	r25
 47e:	af 93       	push	r26
 480:	bf 93       	push	r27
 482:	ef 93       	push	r30
 484:	ff 93       	push	r31
 486:	e0 91 92 00 	lds	r30, 0x0092	; 0x800092 <Timer0_OVF_Fptr>
 48a:	f0 91 93 00 	lds	r31, 0x0093	; 0x800093 <Timer0_OVF_Fptr+0x1>
 48e:	30 97       	sbiw	r30, 0x00	; 0
 490:	09 f0       	breq	.+2      	; 0x494 <__vector_11+0x30>
 492:	09 95       	icall
 494:	ff 91       	pop	r31
 496:	ef 91       	pop	r30
 498:	bf 91       	pop	r27
 49a:	af 91       	pop	r26
 49c:	9f 91       	pop	r25
 49e:	8f 91       	pop	r24
 4a0:	7f 91       	pop	r23
 4a2:	6f 91       	pop	r22
 4a4:	5f 91       	pop	r21
 4a6:	4f 91       	pop	r20
 4a8:	3f 91       	pop	r19
 4aa:	2f 91       	pop	r18
 4ac:	0f 90       	pop	r0
 4ae:	0f be       	out	0x3f, r0	; 63
 4b0:	0f 90       	pop	r0
 4b2:	1f 90       	pop	r1
 4b4:	18 95       	reti

000004b6 <__vector_10>:
 4b6:	1f 92       	push	r1
 4b8:	0f 92       	push	r0
 4ba:	0f b6       	in	r0, 0x3f	; 63
 4bc:	0f 92       	push	r0
 4be:	11 24       	eor	r1, r1
 4c0:	2f 93       	push	r18
 4c2:	3f 93       	push	r19
 4c4:	4f 93       	push	r20
 4c6:	5f 93       	push	r21
 4c8:	6f 93       	push	r22
 4ca:	7f 93       	push	r23
 4cc:	8f 93       	push	r24
 4ce:	9f 93       	push	r25
 4d0:	af 93       	push	r26
 4d2:	bf 93       	push	r27
 4d4:	ef 93       	push	r30
 4d6:	ff 93       	push	r31
 4d8:	e0 91 90 00 	lds	r30, 0x0090	; 0x800090 <Timer0_OC_Fptr>
 4dc:	f0 91 91 00 	lds	r31, 0x0091	; 0x800091 <Timer0_OC_Fptr+0x1>
 4e0:	30 97       	sbiw	r30, 0x00	; 0
 4e2:	09 f0       	breq	.+2      	; 0x4e6 <__vector_10+0x30>
 4e4:	09 95       	icall
 4e6:	ff 91       	pop	r31
 4e8:	ef 91       	pop	r30
 4ea:	bf 91       	pop	r27
 4ec:	af 91       	pop	r26
 4ee:	9f 91       	pop	r25
 4f0:	8f 91       	pop	r24
 4f2:	7f 91       	pop	r23
 4f4:	6f 91       	pop	r22
 4f6:	5f 91       	pop	r21
 4f8:	4f 91       	pop	r20
 4fa:	3f 91       	pop	r19
 4fc:	2f 91       	pop	r18
 4fe:	0f 90       	pop	r0
 500:	0f be       	out	0x3f, r0	; 63
 502:	0f 90       	pop	r0
 504:	1f 90       	pop	r1
 506:	18 95       	reti

00000508 <Timer1_Init>:
 508:	82 30       	cpi	r24, 0x02	; 2
 50a:	d9 f0       	breq	.+54     	; 0x542 <Timer1_Init+0x3a>
 50c:	50 f4       	brcc	.+20     	; 0x522 <Timer1_Init+0x1a>
 50e:	88 23       	and	r24, r24
 510:	79 f0       	breq	.+30     	; 0x530 <Timer1_Init+0x28>
 512:	81 30       	cpi	r24, 0x01	; 1
 514:	71 f5       	brne	.+92     	; 0x572 <Timer1_Init+0x6a>
 516:	8f b5       	in	r24, 0x2f	; 47
 518:	8e 7f       	andi	r24, 0xFE	; 254
 51a:	8f bd       	out	0x2f, r24	; 47
 51c:	8f b5       	in	r24, 0x2f	; 47
 51e:	8d 7f       	andi	r24, 0xFD	; 253
 520:	21 c0       	rjmp	.+66     	; 0x564 <Timer1_Init+0x5c>
 522:	83 30       	cpi	r24, 0x03	; 3
 524:	d1 f0       	breq	.+52     	; 0x55a <Timer1_Init+0x52>
 526:	84 30       	cpi	r24, 0x04	; 4
 528:	21 f5       	brne	.+72     	; 0x572 <Timer1_Init+0x6a>
 52a:	8f b5       	in	r24, 0x2f	; 47
 52c:	81 60       	ori	r24, 0x01	; 1
 52e:	17 c0       	rjmp	.+46     	; 0x55e <Timer1_Init+0x56>
 530:	8f b5       	in	r24, 0x2f	; 47
 532:	8e 7f       	andi	r24, 0xFE	; 254
 534:	8f bd       	out	0x2f, r24	; 47
 536:	8f b5       	in	r24, 0x2f	; 47
 538:	8d 7f       	andi	r24, 0xFD	; 253
 53a:	8f bd       	out	0x2f, r24	; 47
 53c:	8e b5       	in	r24, 0x2e	; 46
 53e:	87 7f       	andi	r24, 0xF7	; 247
 540:	08 c0       	rjmp	.+16     	; 0x552 <Timer1_Init+0x4a>
 542:	8f b5       	in	r24, 0x2f	; 47
 544:	8e 7f       	andi	r24, 0xFE	; 254
 546:	8f bd       	out	0x2f, r24	; 47
 548:	8f b5       	in	r24, 0x2f	; 47
 54a:	8d 7f       	andi	r24, 0xFD	; 253
 54c:	8f bd       	out	0x2f, r24	; 47
 54e:	8e b5       	in	r24, 0x2e	; 46
 550:	88 60       	ori	r24, 0x08	; 8
 552:	8e bd       	out	0x2e, r24	; 46
 554:	8e b5       	in	r24, 0x2e	; 46
 556:	8f 7e       	andi	r24, 0xEF	; 239
 558:	0b c0       	rjmp	.+22     	; 0x570 <Timer1_Init+0x68>
 55a:	8f b5       	in	r24, 0x2f	; 47
 55c:	8e 7f       	andi	r24, 0xFE	; 254
 55e:	8f bd       	out	0x2f, r24	; 47
 560:	8f b5       	in	r24, 0x2f	; 47
 562:	82 60       	ori	r24, 0x02	; 2
 564:	8f bd       	out	0x2f, r24	; 47
 566:	8e b5       	in	r24, 0x2e	; 46
 568:	88 60       	ori	r24, 0x08	; 8
 56a:	8e bd       	out	0x2e, r24	; 46
 56c:	8e b5       	in	r24, 0x2e	; 46
 56e:	80 61       	ori	r24, 0x10	; 16
 570:	8e bd       	out	0x2e, r24	; 46
 572:	8e b5       	in	r24, 0x2e	; 46
 574:	88 7f       	andi	r24, 0xF8	; 248
 576:	8e bd       	out	0x2e, r24	; 46
 578:	8e b5       	in	r24, 0x2e	; 46
 57a:	68 2b       	or	r22, r24
 57c:	6e bd       	out	0x2e, r22	; 46
 57e:	08 95       	ret

00000580 <Timer1_OCA_InterruptEnable>:
 580:	89 b7       	in	r24, 0x39	; 57
 582:	80 61       	ori	r24, 0x10	; 16
 584:	89 bf       	out	0x39, r24	; 57
 586:	08 95       	ret

00000588 <Timer1_OCA_SetCallBack>:
 588:	90 93 8d 00 	sts	0x008D, r25	; 0x80008d <Timer1_OCA_Fptr+0x1>
 58c:	80 93 8c 00 	sts	0x008C, r24	; 0x80008c <Timer1_OCA_Fptr>
 590:	08 95       	ret

00000592 <__vector_9>:
 592:	1f 92       	push	r1
 594:	0f 92       	push	r0
 596:	0f b6       	in	r0, 0x3f	; 63
 598:	0f 92       	push	r0
 59a:	11 24       	eor	r1, r1
 59c:	2f 93       	push	r18
 59e:	3f 93       	push	r19
 5a0:	4f 93       	push	r20
 5a2:	5f 93       	push	r21
 5a4:	6f 93       	push	r22
 5a6:	7f 93       	push	r23
 5a8:	8f 93       	push	r24
 5aa:	9f 93       	push	r25
 5ac:	af 93       	push	r26
 5ae:	bf 93       	push	r27
 5b0:	ef 93       	push	r30
 5b2:	ff 93       	push	r31
 5b4:	e0 91 8e 00 	lds	r30, 0x008E	; 0x80008e <Timer1_OVF_Fptr>
 5b8:	f0 91 8f 00 	lds	r31, 0x008F	; 0x80008f <Timer1_OVF_Fptr+0x1>
 5bc:	30 97       	sbiw	r30, 0x00	; 0
 5be:	09 f0       	breq	.+2      	; 0x5c2 <__vector_9+0x30>
 5c0:	09 95       	icall
 5c2:	ff 91       	pop	r31
 5c4:	ef 91       	pop	r30
 5c6:	bf 91       	pop	r27
 5c8:	af 91       	pop	r26
 5ca:	9f 91       	pop	r25
 5cc:	8f 91       	pop	r24
 5ce:	7f 91       	pop	r23
 5d0:	6f 91       	pop	r22
 5d2:	5f 91       	pop	r21
 5d4:	4f 91       	pop	r20
 5d6:	3f 91       	pop	r19
 5d8:	2f 91       	pop	r18
 5da:	0f 90       	pop	r0
 5dc:	0f be       	out	0x3f, r0	; 63
 5de:	0f 90       	pop	r0
 5e0:	1f 90       	pop	r1
 5e2:	18 95       	reti

000005e4 <__vector_7>:
 5e4:	1f 92       	push	r1
 5e6:	0f 92       	push	r0
 5e8:	0f b6       	in	r0, 0x3f	; 63
 5ea:	0f 92       	push	r0
 5ec:	11 24       	eor	r1, r1
 5ee:	2f 93       	push	r18
 5f0:	3f 93       	push	r19
 5f2:	4f 93       	push	r20
 5f4:	5f 93       	push	r21
 5f6:	6f 93       	push	r22
 5f8:	7f 93       	push	r23
 5fa:	8f 93       	push	r24
 5fc:	9f 93       	push	r25
 5fe:	af 93       	push	r26
 600:	bf 93       	push	r27
 602:	ef 93       	push	r30
 604:	ff 93       	push	r31
 606:	e0 91 8c 00 	lds	r30, 0x008C	; 0x80008c <Timer1_OCA_Fptr>
 60a:	f0 91 8d 00 	lds	r31, 0x008D	; 0x80008d <Timer1_OCA_Fptr+0x1>
 60e:	30 97       	sbiw	r30, 0x00	; 0
 610:	09 f0       	breq	.+2      	; 0x614 <__vector_7+0x30>
 612:	09 95       	icall
 614:	ff 91       	pop	r31
 616:	ef 91       	pop	r30
 618:	bf 91       	pop	r27
 61a:	af 91       	pop	r26
 61c:	9f 91       	pop	r25
 61e:	8f 91       	pop	r24
 620:	7f 91       	pop	r23
 622:	6f 91       	pop	r22
 624:	5f 91       	pop	r21
 626:	4f 91       	pop	r20
 628:	3f 91       	pop	r19
 62a:	2f 91       	pop	r18
 62c:	0f 90       	pop	r0
 62e:	0f be       	out	0x3f, r0	; 63
 630:	0f 90       	pop	r0
 632:	1f 90       	pop	r1
 634:	18 95       	reti

00000636 <__vector_8>:
 636:	1f 92       	push	r1
 638:	0f 92       	push	r0
 63a:	0f b6       	in	r0, 0x3f	; 63
 63c:	0f 92       	push	r0
 63e:	11 24       	eor	r1, r1
 640:	2f 93       	push	r18
 642:	3f 93       	push	r19
 644:	4f 93       	push	r20
 646:	5f 93       	push	r21
 648:	6f 93       	push	r22
 64a:	7f 93       	push	r23
 64c:	8f 93       	push	r24
 64e:	9f 93       	push	r25
 650:	af 93       	push	r26
 652:	bf 93       	push	r27
 654:	ef 93       	push	r30
 656:	ff 93       	push	r31
 658:	e0 91 8a 00 	lds	r30, 0x008A	; 0x80008a <Timer1_OCB_Fptr>
 65c:	f0 91 8b 00 	lds	r31, 0x008B	; 0x80008b <Timer1_OCB_Fptr+0x1>
 660:	30 97       	sbiw	r30, 0x00	; 0
 662:	09 f0       	breq	.+2      	; 0x666 <__vector_8+0x30>
 664:	09 95       	icall
 666:	ff 91       	pop	r31
 668:	ef 91       	pop	r30
 66a:	bf 91       	pop	r27
 66c:	af 91       	pop	r26
 66e:	9f 91       	pop	r25
 670:	8f 91       	pop	r24
 672:	7f 91       	pop	r23
 674:	6f 91       	pop	r22
 676:	5f 91       	pop	r21
 678:	4f 91       	pop	r20
 67a:	3f 91       	pop	r19
 67c:	2f 91       	pop	r18
 67e:	0f 90       	pop	r0
 680:	0f be       	out	0x3f, r0	; 63
 682:	0f 90       	pop	r0
 684:	1f 90       	pop	r1
 686:	18 95       	reti

00000688 <__vector_6>:
 688:	1f 92       	push	r1
 68a:	0f 92       	push	r0
 68c:	0f b6       	in	r0, 0x3f	; 63
 68e:	0f 92       	push	r0
 690:	11 24       	eor	r1, r1
 692:	2f 93       	push	r18
 694:	3f 93       	push	r19
 696:	4f 93       	push	r20
 698:	5f 93       	push	r21
 69a:	6f 93       	push	r22
 69c:	7f 93       	push	r23
 69e:	8f 93       	push	r24
 6a0:	9f 93       	push	r25
 6a2:	af 93       	push	r26
 6a4:	bf 93       	push	r27
 6a6:	ef 93       	push	r30
 6a8:	ff 93       	push	r31
 6aa:	e0 91 88 00 	lds	r30, 0x0088	; 0x800088 <Timer1_ICU_Fptr>
 6ae:	f0 91 89 00 	lds	r31, 0x0089	; 0x800089 <Timer1_ICU_Fptr+0x1>
 6b2:	30 97       	sbiw	r30, 0x00	; 0
 6b4:	09 f0       	breq	.+2      	; 0x6b8 <__vector_6+0x30>
 6b6:	09 95       	icall
 6b8:	ff 91       	pop	r31
 6ba:	ef 91       	pop	r30
 6bc:	bf 91       	pop	r27
 6be:	af 91       	pop	r26
 6c0:	9f 91       	pop	r25
 6c2:	8f 91       	pop	r24
 6c4:	7f 91       	pop	r23
 6c6:	6f 91       	pop	r22
 6c8:	5f 91       	pop	r21
 6ca:	4f 91       	pop	r20
 6cc:	3f 91       	pop	r19
 6ce:	2f 91       	pop	r18
 6d0:	0f 90       	pop	r0
 6d2:	0f be       	out	0x3f, r0	; 63
 6d4:	0f 90       	pop	r0
 6d6:	1f 90       	pop	r1
 6d8:	18 95       	reti

000006da <__vector_13>:
 6da:	1f 92       	push	r1
 6dc:	0f 92       	push	r0
 6de:	0f b6       	in	r0, 0x3f	; 63
 6e0:	0f 92       	push	r0
 6e2:	11 24       	eor	r1, r1
 6e4:	2f 93       	push	r18
 6e6:	3f 93       	push	r19
 6e8:	4f 93       	push	r20
 6ea:	5f 93       	push	r21
 6ec:	6f 93       	push	r22
 6ee:	7f 93       	push	r23
 6f0:	8f 93       	push	r24
 6f2:	9f 93       	push	r25
 6f4:	af 93       	push	r26
 6f6:	bf 93       	push	r27
 6f8:	ef 93       	push	r30
 6fa:	ff 93       	push	r31
 6fc:	e0 91 96 00 	lds	r30, 0x0096	; 0x800096 <UART_RX_Fptr>
 700:	f0 91 97 00 	lds	r31, 0x0097	; 0x800097 <UART_RX_Fptr+0x1>
 704:	30 97       	sbiw	r30, 0x00	; 0
 706:	09 f0       	breq	.+2      	; 0x70a <__vector_13+0x30>
 708:	09 95       	icall
 70a:	ff 91       	pop	r31
 70c:	ef 91       	pop	r30
 70e:	bf 91       	pop	r27
 710:	af 91       	pop	r26
 712:	9f 91       	pop	r25
 714:	8f 91       	pop	r24
 716:	7f 91       	pop	r23
 718:	6f 91       	pop	r22
 71a:	5f 91       	pop	r21
 71c:	4f 91       	pop	r20
 71e:	3f 91       	pop	r19
 720:	2f 91       	pop	r18
 722:	0f 90       	pop	r0
 724:	0f be       	out	0x3f, r0	; 63
 726:	0f 90       	pop	r0
 728:	1f 90       	pop	r1
 72a:	18 95       	reti

0000072c <__vector_15>:
 72c:	1f 92       	push	r1
 72e:	0f 92       	push	r0
 730:	0f b6       	in	r0, 0x3f	; 63
 732:	0f 92       	push	r0
 734:	11 24       	eor	r1, r1
 736:	2f 93       	push	r18
 738:	3f 93       	push	r19
 73a:	4f 93       	push	r20
 73c:	5f 93       	push	r21
 73e:	6f 93       	push	r22
 740:	7f 93       	push	r23
 742:	8f 93       	push	r24
 744:	9f 93       	push	r25
 746:	af 93       	push	r26
 748:	bf 93       	push	r27
 74a:	ef 93       	push	r30
 74c:	ff 93       	push	r31
 74e:	e0 91 94 00 	lds	r30, 0x0094	; 0x800094 <UART_TX_Fptr>
 752:	f0 91 95 00 	lds	r31, 0x0095	; 0x800095 <UART_TX_Fptr+0x1>
 756:	30 97       	sbiw	r30, 0x00	; 0
 758:	09 f0       	breq	.+2      	; 0x75c <__vector_15+0x30>
 75a:	09 95       	icall
 75c:	ff 91       	pop	r31
 75e:	ef 91       	pop	r30
 760:	bf 91       	pop	r27
 762:	af 91       	pop	r26
 764:	9f 91       	pop	r25
 766:	8f 91       	pop	r24
 768:	7f 91       	pop	r23
 76a:	6f 91       	pop	r22
 76c:	5f 91       	pop	r21
 76e:	4f 91       	pop	r20
 770:	3f 91       	pop	r19
 772:	2f 91       	pop	r18
 774:	0f 90       	pop	r0
 776:	0f be       	out	0x3f, r0	; 63
 778:	0f 90       	pop	r0
 77a:	1f 90       	pop	r1
 77c:	18 95       	reti

0000077e <Scheduler>:
 77e:	cf 93       	push	r28
 780:	df 93       	push	r29
 782:	80 91 98 00 	lds	r24, 0x0098	; 0x800098 <static_counter.1823>
 786:	90 91 99 00 	lds	r25, 0x0099	; 0x800099 <static_counter.1823+0x1>
 78a:	01 96       	adiw	r24, 0x01	; 1
 78c:	90 93 99 00 	sts	0x0099, r25	; 0x800099 <static_counter.1823+0x1>
 790:	80 93 98 00 	sts	0x0098, r24	; 0x800098 <static_counter.1823>
 794:	ca e9       	ldi	r28, 0x9A	; 154
 796:	d0 e0       	ldi	r29, 0x00	; 0
 798:	8c 81       	ldd	r24, Y+4	; 0x04
 79a:	81 11       	cpse	r24, r1
 79c:	0f c0       	rjmp	.+30     	; 0x7bc <Scheduler+0x3e>
 79e:	80 91 98 00 	lds	r24, 0x0098	; 0x800098 <static_counter.1823>
 7a2:	90 91 99 00 	lds	r25, 0x0099	; 0x800099 <static_counter.1823+0x1>
 7a6:	68 81       	ld	r22, Y
 7a8:	79 81       	ldd	r23, Y+1	; 0x01
 7aa:	0e 94 21 04 	call	0x842	; 0x842 <__udivmodhi4>
 7ae:	89 2b       	or	r24, r25
 7b0:	29 f4       	brne	.+10     	; 0x7bc <Scheduler+0x3e>
 7b2:	ea 81       	ldd	r30, Y+2	; 0x02
 7b4:	fb 81       	ldd	r31, Y+3	; 0x03
 7b6:	30 97       	sbiw	r30, 0x00	; 0
 7b8:	09 f0       	breq	.+2      	; 0x7bc <Scheduler+0x3e>
 7ba:	09 95       	icall
 7bc:	26 96       	adiw	r28, 0x06	; 6
 7be:	80 e0       	ldi	r24, 0x00	; 0
 7c0:	c8 3b       	cpi	r28, 0xB8	; 184
 7c2:	d8 07       	cpc	r29, r24
 7c4:	49 f7       	brne	.-46     	; 0x798 <Scheduler+0x1a>
 7c6:	df 91       	pop	r29
 7c8:	cf 91       	pop	r28
 7ca:	08 95       	ret

000007cc <RTOS_voidStart>:
 7cc:	6f eb       	ldi	r22, 0xBF	; 191
 7ce:	73 e0       	ldi	r23, 0x03	; 3
 7d0:	81 e0       	ldi	r24, 0x01	; 1
 7d2:	90 e0       	ldi	r25, 0x00	; 0
 7d4:	0e 94 02 04 	call	0x804	; 0x804 <Timer1_SetInterruptTime_ms>
 7d8:	78 94       	sei
 7da:	08 95       	ret

000007dc <RTOS_u8CreateTask>:
 7dc:	61 15       	cp	r22, r1
 7de:	71 05       	cpc	r23, r1
 7e0:	81 f0       	breq	.+32     	; 0x802 <__DATA_REGION_LENGTH__+0x2>
 7e2:	96 e0       	ldi	r25, 0x06	; 6
 7e4:	89 9f       	mul	r24, r25
 7e6:	f0 01       	movw	r30, r0
 7e8:	11 24       	eor	r1, r1
 7ea:	e6 56       	subi	r30, 0x66	; 102
 7ec:	ff 4f       	sbci	r31, 0xFF	; 255
 7ee:	82 81       	ldd	r24, Z+2	; 0x02
 7f0:	93 81       	ldd	r25, Z+3	; 0x03
 7f2:	89 2b       	or	r24, r25
 7f4:	31 f4       	brne	.+12     	; 0x802 <__DATA_REGION_LENGTH__+0x2>
 7f6:	51 83       	std	Z+1, r21	; 0x01
 7f8:	40 83       	st	Z, r20
 7fa:	73 83       	std	Z+3, r23	; 0x03
 7fc:	62 83       	std	Z+2, r22	; 0x02
 7fe:	14 82       	std	Z+4, r1	; 0x04
 800:	25 83       	std	Z+5, r18	; 0x05
 802:	08 95       	ret

00000804 <Timer1_SetInterruptTime_ms>:
 804:	0f 93       	push	r16
 806:	1f 93       	push	r17
 808:	cf 93       	push	r28
 80a:	df 93       	push	r29
 80c:	8c 01       	movw	r16, r24
 80e:	eb 01       	movw	r28, r22
 810:	62 e0       	ldi	r22, 0x02	; 2
 812:	82 e0       	ldi	r24, 0x02	; 2
 814:	0e 94 84 02 	call	0x508	; 0x508 <Timer1_Init>
 818:	28 ee       	ldi	r18, 0xE8	; 232
 81a:	33 e0       	ldi	r19, 0x03	; 3
 81c:	02 9f       	mul	r16, r18
 81e:	c0 01       	movw	r24, r0
 820:	03 9f       	mul	r16, r19
 822:	90 0d       	add	r25, r0
 824:	12 9f       	mul	r17, r18
 826:	90 0d       	add	r25, r0
 828:	11 24       	eor	r1, r1
 82a:	01 97       	sbiw	r24, 0x01	; 1
 82c:	9b bd       	out	0x2b, r25	; 43
 82e:	8a bd       	out	0x2a, r24	; 42
 830:	ce 01       	movw	r24, r28
 832:	0e 94 c4 02 	call	0x588	; 0x588 <Timer1_OCA_SetCallBack>
 836:	df 91       	pop	r29
 838:	cf 91       	pop	r28
 83a:	1f 91       	pop	r17
 83c:	0f 91       	pop	r16
 83e:	0c 94 c0 02 	jmp	0x580	; 0x580 <Timer1_OCA_InterruptEnable>

00000842 <__udivmodhi4>:
 842:	aa 1b       	sub	r26, r26
 844:	bb 1b       	sub	r27, r27
 846:	51 e1       	ldi	r21, 0x11	; 17
 848:	07 c0       	rjmp	.+14     	; 0x858 <__udivmodhi4_ep>

0000084a <__udivmodhi4_loop>:
 84a:	aa 1f       	adc	r26, r26
 84c:	bb 1f       	adc	r27, r27
 84e:	a6 17       	cp	r26, r22
 850:	b7 07       	cpc	r27, r23
 852:	10 f0       	brcs	.+4      	; 0x858 <__udivmodhi4_ep>
 854:	a6 1b       	sub	r26, r22
 856:	b7 0b       	sbc	r27, r23

00000858 <__udivmodhi4_ep>:
 858:	88 1f       	adc	r24, r24
 85a:	99 1f       	adc	r25, r25
 85c:	5a 95       	dec	r21
 85e:	a9 f7       	brne	.-22     	; 0x84a <__udivmodhi4_loop>
 860:	80 95       	com	r24
 862:	90 95       	com	r25
 864:	bc 01       	movw	r22, r24
 866:	cd 01       	movw	r24, r26
 868:	08 95       	ret

0000086a <_exit>:
 86a:	f8 94       	cli

0000086c <__stop_program>:
 86c:	ff cf       	rjmp	.-2      	; 0x86c <__stop_program>
